target datalayout = "e-m:e-p270:32:32-p271:32:32-p272:64:64-i64:64-i128:128-f80:128-n8:16:32:64-S128"
target triple = "x86_64-pc-linux-gnu"

%struct._zval_struct = type { %union._zend_value, %union.anon, %union.anon.2 }
%union._zend_value = type { i64 }
%union.anon = type { i32 }
%union.anon.2 = type { i32 }
%struct._zend_array = type { %struct._zend_refcounted_h, %union.anon.4, i32, %union.anon.6, i32, i32, i32, i32, i64, ptr }
%struct._zend_refcounted_h = type { i32, %union.anon.3 }
%union.anon.3 = type { i32 }
%union.anon.4 = type { i32 }
%union.anon.6 = type { ptr }
%struct._spl_array_object = type { %struct._zval_struct, i32, i32, i8, i8, ptr, ptr, ptr, ptr, ptr, ptr, ptr, %struct._zend_object }
%struct._zend_object = type { %struct._zend_refcounted_h, i32, ptr, ptr, ptr, [1 x %struct._zval_struct] }

; Function Attrs: nounwind uwtable
define internal ptr @spl_array_get_hash_table_ptr(ptr noundef %0) #0 {
  %2 = alloca ptr, align 8
  %3 = alloca ptr, align 8
  %4 = alloca ptr, align 8
  %5 = alloca i32, align 4
  %6 = alloca ptr, align 8
  %7 = alloca ptr, align 8
  %8 = alloca ptr, align 8
  %9 = alloca ptr, align 8
  store ptr %0, ptr %7, align 8
  %10 = load ptr, ptr %7, align 8
  %11 = getelementptr inbounds %struct._spl_array_object, ptr %10, i32 0, i32 2
  %12 = load i32, ptr %11, align 4
  %13 = and i32 %12, 16777216
  %14 = icmp ne i32 %13, 0
  br i1 %14, label %15, label %28

15:                                               ; preds = %1
  %16 = load ptr, ptr %7, align 8
  %17 = getelementptr inbounds %struct._spl_array_object, ptr %16, i32 0, i32 12
  %18 = getelementptr inbounds %struct._zend_object, ptr %17, i32 0, i32 4
  %19 = load ptr, ptr %18, align 8
  %20 = icmp ne ptr %19, null
  br i1 %20, label %24, label %21

21:                                               ; preds = %15
  %22 = load ptr, ptr %7, align 8
  %23 = getelementptr inbounds %struct._spl_array_object, ptr %22, i32 0, i32 12
  call void @rebuild_object_properties(ptr noundef %23)
  br label %24

24:                                               ; preds = %21, %15
  %25 = load ptr, ptr %7, align 8
  %26 = getelementptr inbounds %struct._spl_array_object, ptr %25, i32 0, i32 12
  %27 = getelementptr inbounds %struct._zend_object, ptr %26, i32 0, i32 4
  store ptr %27, ptr %6, align 8
  br label %112

28:                                               ; preds = %1
  %29 = load ptr, ptr %7, align 8
  %30 = getelementptr inbounds %struct._spl_array_object, ptr %29, i32 0, i32 2
  %31 = load i32, ptr %30, align 4
  %32 = and i32 %31, 33554432
  %33 = icmp ne i32 %32, 0
  br i1 %33, label %34, label %42

34:                                               ; preds = %28
  %35 = load ptr, ptr %7, align 8
  %36 = getelementptr inbounds %struct._spl_array_object, ptr %35, i32 0, i32 0
  %37 = getelementptr inbounds %struct._zval_struct, ptr %36, i32 0, i32 0
  %38 = load ptr, ptr %37, align 8
  %39 = call ptr @spl_array_from_obj(ptr noundef %38)
  store ptr %39, ptr %8, align 8
  %40 = load ptr, ptr %8, align 8
  %41 = call ptr @spl_array_get_hash_table_ptr(ptr noundef %40)
  store ptr %41, ptr %6, align 8
  br label %112

42:                                               ; preds = %28
  %43 = load ptr, ptr %7, align 8
  %44 = getelementptr inbounds %struct._spl_array_object, ptr %43, i32 0, i32 0
  store ptr %44, ptr %4, align 8
  %45 = load ptr, ptr %4, align 8
  %46 = getelementptr inbounds %struct._zval_struct, ptr %45, i32 0, i32 1
  %47 = load i8, ptr %46, align 8
  %48 = zext i8 %47 to i32
  %49 = icmp eq i32 %48, 7
  br i1 %49, label %50, label %54

50:                                               ; preds = %42
  %51 = load ptr, ptr %7, align 8
  %52 = getelementptr inbounds %struct._spl_array_object, ptr %51, i32 0, i32 0
  %53 = getelementptr inbounds %struct._zval_struct, ptr %52, i32 0, i32 0
  store ptr %53, ptr %6, align 8
  br label %112

54:                                               ; preds = %42
  %55 = load ptr, ptr %7, align 8
  %56 = getelementptr inbounds %struct._spl_array_object, ptr %55, i32 0, i32 0
  %57 = getelementptr inbounds %struct._zval_struct, ptr %56, i32 0, i32 0
  %58 = load ptr, ptr %57, align 8
  store ptr %58, ptr %9, align 8
  %59 = load ptr, ptr %9, align 8
  %60 = getelementptr inbounds %struct._zend_object, ptr %59, i32 0, i32 4
  %61 = load ptr, ptr %60, align 8
  %62 = icmp ne ptr %61, null
  br i1 %62, label %65, label %63

63:                                               ; preds = %54
  %64 = load ptr, ptr %9, align 8
  call void @rebuild_object_properties(ptr noundef %64)
  br label %109

65:                                               ; preds = %54
  %66 = load ptr, ptr %9, align 8
  %67 = getelementptr inbounds %struct._zend_object, ptr %66, i32 0, i32 4
  %68 = load ptr, ptr %67, align 8
  %69 = getelementptr inbounds %struct._zend_array, ptr %68, i32 0, i32 0
  store ptr %69, ptr %3, align 8
  %70 = load ptr, ptr %3, align 8
  %71 = load i32, ptr %70, align 4
  %72 = icmp ugt i32 %71, 1
  br i1 %72, label %73, label %108

73:                                               ; preds = %65
  %74 = load ptr, ptr %9, align 8
  %75 = getelementptr inbounds %struct._zend_object, ptr %74, i32 0, i32 4
  %76 = load ptr, ptr %75, align 8
  %77 = getelementptr inbounds %struct._zend_array, ptr %76, i32 0, i32 0
  %78 = getelementptr inbounds %struct._zend_refcounted_h, ptr %77, i32 0, i32 1
  %79 = load i32, ptr %78, align 4
  store i32 %79, ptr %5, align 4
  %80 = load i32, ptr %5, align 4
  %81 = and i32 %80, 1008
  %82 = and i32 %81, 64
  %83 = icmp ne i32 %82, 0
  %84 = xor i1 %83, true
  %85 = xor i1 %84, true
  %86 = xor i1 %85, true
  %87 = zext i1 %86 to i32
  %88 = sext i32 %87 to i64
  %89 = icmp ne i64 %88, 0
  br i1 %89, label %90, label %101

90:                                               ; preds = %73
  %91 = load ptr, ptr %9, align 8
  %92 = getelementptr inbounds %struct._zend_object, ptr %91, i32 0, i32 4
  %93 = load ptr, ptr %92, align 8
  %94 = getelementptr inbounds %struct._zend_array, ptr %93, i32 0, i32 0
  store ptr %94, ptr %2, align 8
  %95 = load ptr, ptr %2, align 8
  %96 = load i32, ptr %95, align 4
  %97 = icmp ugt i32 %96, 0
  call void @llvm.assume(i1 %97)
  %98 = load ptr, ptr %2, align 8
  %99 = load i32, ptr %98, align 4
  %100 = add i32 %99, -1
  store i32 %100, ptr %98, align 4
  br label %101

101:                                              ; preds = %90, %73
  %102 = load ptr, ptr %9, align 8
  %103 = getelementptr inbounds %struct._zend_object, ptr %102, i32 0, i32 4
  %104 = load ptr, ptr %103, align 8
  %105 = call ptr @zend_array_dup(ptr noundef %104)
  %106 = load ptr, ptr %9, align 8
  %107 = getelementptr inbounds %struct._zend_object, ptr %106, i32 0, i32 4
  store ptr %105, ptr %107, align 8
  br label %108

108:                                              ; preds = %101, %65
  br label %109

109:                                              ; preds = %108, %63
  %110 = load ptr, ptr %9, align 8
  %111 = getelementptr inbounds %struct._zend_object, ptr %110, i32 0, i32 4
  store ptr %111, ptr %6, align 8
  br label %112

112:                                              ; preds = %109, %50, %34, %24
  %113 = load ptr, ptr %6, align 8
  ret ptr %113
}

; Function Attrs: nounwind uwtable
define internal ptr @spl_array_get_hash_table(ptr noundef %0) #0 {
  %2 = alloca ptr, align 8
  store ptr %0, ptr %2, align 8
  %3 = load ptr, ptr %2, align 8
  %4 = call ptr @spl_array_get_hash_table_ptr(ptr noundef %3)
  %5 = load ptr, ptr %4, align 8
  ret ptr %5
}

; Function Attrs: nounwind uwtable
define internal ptr @spl_array_from_obj(ptr noundef %0) #0 {
  %2 = alloca ptr, align 8
  store ptr %0, ptr %2, align 8
  %3 = load ptr, ptr %2, align 8
  %4 = getelementptr inbounds i8, ptr %3, i64 -88
  ret ptr %4
}

; Function Attrs: nounwind uwtable
define internal ptr @spl_array_get_properties_for(ptr noundef %0, i32 noundef %1) #0 {
  %3 = alloca ptr, align 8
  %4 = alloca ptr, align 8
  %5 = alloca ptr, align 8
  %6 = alloca i32, align 4
  %7 = alloca ptr, align 8
  %8 = alloca ptr, align 8
  %9 = alloca i8, align 1
  store ptr %0, ptr %5, align 8
  store i32 %1, ptr %6, align 4
  %10 = load ptr, ptr %5, align 8
  %11 = call ptr @spl_array_from_obj(ptr noundef %10)
  store ptr %11, ptr %7, align 8
  %12 = load ptr, ptr %7, align 8
  %13 = getelementptr inbounds %struct._spl_array_object, ptr %12, i32 0, i32 2
  %14 = load i32, ptr %13, align 4
  %15 = and i32 %14, 1
  %16 = icmp ne i32 %15, 0
  br i1 %16, label %17, label %21

17:                                               ; preds = %2
  %18 = load ptr, ptr %5, align 8
  %19 = load i32, ptr %6, align 4
  %20 = call ptr @zend_std_get_properties_for(ptr noundef %18, i32 noundef %19)
  store ptr %20, ptr %4, align 8
  br label %45

21:                                               ; preds = %2
  %22 = load i32, ptr %6, align 4
  switch i32 %22, label %25 [
    i32 1, label %23
    i32 3, label %24
    i32 4, label %24
  ]

23:                                               ; preds = %21
  store i8 1, ptr %9, align 1
  br label %29

24:                                               ; preds = %21, %21
  store i8 0, ptr %9, align 1
  br label %29

25:                                               ; preds = %21
  %26 = load ptr, ptr %5, align 8
  %27 = load i32, ptr %6, align 4
  %28 = call ptr @zend_std_get_properties_for(ptr noundef %26, i32 noundef %27)
  store ptr %28, ptr %4, align 8
  br label %45

29:                                               ; preds = %24, %23
  %30 = load ptr, ptr %7, align 8
  %31 = call ptr @spl_array_get_hash_table(ptr noundef %30)
  store ptr %31, ptr %8, align 8
  %32 = load i8, ptr %9, align 1
  %33 = trunc i8 %32 to i1
  br i1 %33, label %34, label %37

34:                                               ; preds = %29
  %35 = load ptr, ptr %8, align 8
  %36 = call ptr @zend_array_dup(ptr noundef %35)
  store ptr %36, ptr %8, align 8
  br label %43

37:                                               ; preds = %29
  %38 = load ptr, ptr %8, align 8
  %39 = getelementptr inbounds %struct._zend_array, ptr %38, i32 0, i32 0
  store ptr %39, ptr %3, align 8
  %40 = load ptr, ptr %3, align 8
  %41 = load i32, ptr %40, align 4
  %42 = add i32 %41, 1
  store i32 %42, ptr %40, align 4
  br label %43

43:                                               ; preds = %37, %34
  %44 = load ptr, ptr %8, align 8
  store ptr %44, ptr %4, align 8
  br label %45

45:                                               ; preds = %43, %25, %17
  %46 = load ptr, ptr %4, align 8
  ret ptr %46
}