; Function Attrs: nounwind uwtable
define internal ptr @spl_array_get_properties_for(ptr noundef %0, i32 noundef %1) #0 {
  %3 = getelementptr inbounds i8, ptr %0, i64 -88
  %4 = getelementptr inbounds i8, ptr %0, i64 -68
  %5 = load i32, ptr %4, align 4
  %6 = and i32 %5, 1
  %.not = icmp eq i32 %6, 0
  br i1 %.not, label %9, label %7

7:                                                ; preds = %2
  %8 = tail call ptr @zend_std_get_properties_for(ptr noundef nonnull %0, i32 noundef %1) #11
  br label %53

9:                                                ; preds = %2
  switch i32 %1, label %11 [
    i32 1, label %13
    i32 3, label %10
    i32 4, label %10
  ]

10:                                               ; preds = %9, %9
  br label %13

11:                                               ; preds = %9
  %12 = tail call ptr @zend_std_get_properties_for(ptr noundef nonnull %0, i32 noundef %1) #11
  br label %53

13:                                               ; preds = %9, %10
  %.0 = phi i1 [ false, %10 ], [ true, %9 ]
  %14 = and i32 %5, 16777216
  %.not30.i.i = icmp eq i32 %14, 0
  br i1 %.not30.i.i, label %.lr.ph.i.i, label %tailrecurse._crit_edge.i.i

tailrecurse._crit_edge.i.i:                       ; preds = %tailrecurse.i.i, %13
  %.tr.lcssa.i.i = phi ptr [ %3, %13 ], [ %22, %tailrecurse.i.i ]
  %15 = getelementptr inbounds i8, ptr %.tr.lcssa.i.i, i64 120
  %16 = load ptr, ptr %15, align 8
  %.not28.i.i = icmp eq ptr %16, null
  br i1 %.not28.i.i, label %17, label %spl_array_get_hash_table.exit

17:                                               ; preds = %tailrecurse._crit_edge.i.i
  %18 = getelementptr inbounds i8, ptr %.tr.lcssa.i.i, i64 88
  tail call void @rebuild_object_properties(ptr noundef nonnull %18) #11
  br label %spl_array_get_hash_table.exit

.lr.ph.i.i:                                       ; preds = %13, %tailrecurse.i.i
  %19 = phi i32 [ %24, %tailrecurse.i.i ], [ %5, %13 ]
  %.tr31.i.i = phi ptr [ %22, %tailrecurse.i.i ], [ %3, %13 ]
  %20 = and i32 %19, 33554432
  %.not25.i.i = icmp eq i32 %20, 0
  br i1 %.not25.i.i, label %26, label %tailrecurse.i.i

tailrecurse.i.i:                                  ; preds = %.lr.ph.i.i
  %21 = load ptr, ptr %.tr31.i.i, align 8
  %22 = getelementptr inbounds i8, ptr %21, i64 -88
  %23 = getelementptr inbounds i8, ptr %21, i64 -68
  %24 = load i32, ptr %23, align 4
  %25 = and i32 %24, 16777216
  %.not.i.i = icmp eq i32 %25, 0
  br i1 %.not.i.i, label %.lr.ph.i.i, label %tailrecurse._crit_edge.i.i

26:                                               ; preds = %.lr.ph.i.i
  %27 = getelementptr inbounds i8, ptr %.tr31.i.i, i64 8
  %28 = load i8, ptr %27, align 8
  %29 = icmp eq i8 %28, 7
  br i1 %29, label %spl_array_get_hash_table.exit, label %30

30:                                               ; preds = %26
  %31 = load ptr, ptr %.tr31.i.i, align 8
  %32 = getelementptr inbounds i8, ptr %31, i64 32
  %33 = load ptr, ptr %32, align 8
  %.not26.i.i = icmp eq ptr %33, null
  br i1 %.not26.i.i, label %34, label %35

34:                                               ; preds = %30
  tail call void @rebuild_object_properties(ptr noundef nonnull %31) #11
  br label %spl_array_get_hash_table.exit

35:                                               ; preds = %30
  %36 = load i32, ptr %33, align 4
  %37 = icmp ugt i32 %36, 1
  br i1 %37, label %38, label %spl_array_get_hash_table.exit

38:                                               ; preds = %35
  %39 = getelementptr inbounds i8, ptr %33, i64 4
  %40 = load i32, ptr %39, align 4
  %41 = and i32 %40, 64
  %.not27.i.i = icmp eq i32 %41, 0
  br i1 %.not27.i.i, label %42, label %44

42:                                               ; preds = %38
  %43 = add i32 %36, -1
  store i32 %43, ptr %33, align 4
  %.pre.i.i = load ptr, ptr %32, align 8
  br label %44

44:                                               ; preds = %42, %38
  %45 = phi ptr [ %.pre.i.i, %42 ], [ %33, %38 ]
  %46 = tail call ptr @zend_array_dup(ptr noundef %45) #11
  store ptr %46, ptr %32, align 8
  br label %spl_array_get_hash_table.exit

spl_array_get_hash_table.exit:                    ; preds = %tailrecurse._crit_edge.i.i, %17, %26, %34, %35, %44
  %.0.i.i = phi ptr [ %15, %17 ], [ %15, %tailrecurse._crit_edge.i.i ], [ %.tr31.i.i, %26 ], [ %32, %35 ], [ %32, %44 ], [ %32, %34 ]
  %47 = load ptr, ptr %.0.i.i, align 8
  br i1 %.0, label %48, label %50

48:                                               ; preds = %spl_array_get_hash_table.exit
  %49 = tail call ptr @zend_array_dup(ptr noundef %47) #11
  br label %53

50:                                               ; preds = %spl_array_get_hash_table.exit
  %51 = load i32, ptr %47, align 4
  %52 = add i32 %51, 1
  store i32 %52, ptr %47, align 4
  br label %53

53:                                               ; preds = %48, %50, %11, %7
  %.014 = phi ptr [ %8, %7 ], [ %12, %11 ], [ %49, %48 ], [ %47, %50 ]
  ret ptr %.014
}